target datalayout = "e-m:e-p270:32:32-p271:32:32-p272:64:64-i64:64-i128:128-f80:128-n8:16:32:64-S128"
target triple = "x86_64-pc-linux-gnu"

%struct._zval_struct = type { %union._zend_value, %union.anon, %union.anon.2 }
%union._zend_value = type { i64 }
%union.anon = type { i32 }
%union.anon.2 = type { i32 }
%struct._zend_array = type { %struct._zend_refcounted_h, %union.anon.4, i32, %union.anon.6, i32, i32, i32, i32, i64, ptr }
%struct._zend_refcounted_h = type { i32, %union.anon.3 }
%union.anon.3 = type { i32 }
%union.anon.4 = type { i32 }
%union.anon.6 = type { ptr }
%struct._zend_reference = type { %struct._zend_refcounted_h, %struct._zval_struct, %union.zend_property_info_source_list }
%union.zend_property_info_source_list = type { ptr }
%struct._zend_class_entry = type { i8, ptr, %union.anon.8, i32, i32, i32, i32, ptr, ptr, ptr, %struct._zend_array, %struct._zend_array, %struct._zend_array, ptr, ptr, ptr, ptr, ptr, ptr, ptr, ptr, ptr, ptr, ptr, ptr, ptr, ptr, ptr, ptr, ptr, ptr, ptr, %union.anon.9, ptr, ptr, ptr, ptr, i32, i32, %union.anon.10, ptr, ptr, ptr, ptr, i32, ptr, ptr, %union.anon.11 }
%union.anon.8 = type { ptr }
%union.anon.9 = type { ptr }
%union.anon.10 = type { ptr }
%union.anon.11 = type { %struct.anon.12 }
%struct.anon.12 = type { ptr, i32, i32 }
%struct._zend_string = type { %struct._zend_refcounted_h, i64, i64, [1 x i8] }
%struct._zend_resource = type { %struct._zend_refcounted_h, i64, i32, ptr }

@spl_ce_SplFixedArray = global ptr null, align 8

; Function Attrs: nounwind uwtable
define internal i64 @spl_offset_convert_to_long(ptr noundef %0) #0 {
  %2 = alloca double, align 8
  %3 = alloca i64, align 8
  %4 = alloca i64, align 8
  %5 = alloca double, align 8
  %6 = alloca double, align 8
  %7 = alloca i64, align 8
  %8 = alloca i1, align 1
  %9 = alloca ptr, align 8
  %10 = alloca i64, align 8
  %11 = alloca ptr, align 8
  %12 = alloca ptr, align 8
  %13 = alloca ptr, align 8
  %14 = alloca i64, align 8
  %15 = alloca ptr, align 8
  %16 = alloca i64, align 8
  store ptr %0, ptr %15, align 8
  br label %17

17:                                               ; preds = %117, %1
  %18 = load ptr, ptr %15, align 8
  store ptr %18, ptr %13, align 8
  %19 = load ptr, ptr %13, align 8
  %20 = getelementptr inbounds %struct._zval_struct, ptr %19, i32 0, i32 1
  %21 = load i8, ptr %20, align 8
  %22 = zext i8 %21 to i32
  switch i32 %22, label %129 [
    i32 6, label %23
    i32 5, label %75
    i32 4, label %111
    i32 2, label %115
    i32 3, label %116
    i32 10, label %117
    i32 9, label %122
  ]

23:                                               ; preds = %17
  %24 = load ptr, ptr %15, align 8
  %25 = getelementptr inbounds %struct._zval_struct, ptr %24, i32 0, i32 0
  %26 = load ptr, ptr %25, align 8
  %27 = getelementptr inbounds %struct._zend_string, ptr %26, i32 0, i32 3
  %28 = getelementptr inbounds [1 x i8], ptr %27, i64 0, i64 0
  %29 = load ptr, ptr %15, align 8
  %30 = getelementptr inbounds %struct._zval_struct, ptr %29, i32 0, i32 0
  %31 = load ptr, ptr %30, align 8
  %32 = getelementptr inbounds %struct._zend_string, ptr %31, i32 0, i32 2
  %33 = load i64, ptr %32, align 8
  store ptr %28, ptr %9, align 8
  store i64 %33, ptr %10, align 8
  store ptr %16, ptr %11, align 8
  %34 = load ptr, ptr %9, align 8
  store ptr %34, ptr %12, align 8
  %35 = load ptr, ptr %12, align 8
  %36 = load i8, ptr %35, align 1
  %37 = sext i8 %36 to i32
  %38 = icmp sgt i32 %37, 57
  br i1 %38, label %39, label %40

39:                                               ; preds = %23
  store i1 false, ptr %8, align 1
  br label %70

40:                                               ; preds = %23
  %41 = load ptr, ptr %12, align 8
  %42 = load i8, ptr %41, align 1
  %43 = sext i8 %42 to i32
  %44 = icmp slt i32 %43, 48
  br i1 %44, label %45, label %65

45:                                               ; preds = %40
  %46 = load ptr, ptr %12, align 8
  %47 = load i8, ptr %46, align 1
  %48 = sext i8 %47 to i32
  %49 = icmp ne i32 %48, 45
  br i1 %49, label %50, label %51

50:                                               ; preds = %45
  store i1 false, ptr %8, align 1
  br label %70

51:                                               ; preds = %45
  %52 = load ptr, ptr %12, align 8
  %53 = getelementptr inbounds i8, ptr %52, i32 1
  store ptr %53, ptr %12, align 8
  %54 = load ptr, ptr %12, align 8
  %55 = load i8, ptr %54, align 1
  %56 = sext i8 %55 to i32
  %57 = icmp sgt i32 %56, 57
  br i1 %57, label %63, label %58

58:                                               ; preds = %51
  %59 = load ptr, ptr %12, align 8
  %60 = load i8, ptr %59, align 1
  %61 = sext i8 %60 to i32
  %62 = icmp slt i32 %61, 48
  br i1 %62, label %63, label %64

63:                                               ; preds = %58, %51
  store i1 false, ptr %8, align 1
  br label %70

64:                                               ; preds = %58
  br label %65

65:                                               ; preds = %64, %40
  %66 = load ptr, ptr %9, align 8
  %67 = load i64, ptr %10, align 8
  %68 = load ptr, ptr %11, align 8
  %69 = call zeroext i1 @_zend_handle_numeric_str_ex(ptr noundef %66, i64 noundef %67, ptr noundef %68) #10
  store i1 %69, ptr %8, align 1
  br label %70

70:                                               ; preds = %65, %63, %50, %39
  %71 = load i1, ptr %8, align 1
  br i1 %71, label %72, label %74

72:                                               ; preds = %70
  %73 = load i64, ptr %16, align 8
  store i64 %73, ptr %14, align 8
  br label %134

74:                                               ; preds = %70
  br label %129

75:                                               ; preds = %17
  %76 = load ptr, ptr %15, align 8
  %77 = getelementptr inbounds %struct._zval_struct, ptr %76, i32 0, i32 0
  %78 = load double, ptr %77, align 8
  store double %78, ptr %6, align 8
  %79 = load double, ptr %6, align 8
  store double %79, ptr %5, align 8
  %80 = load double, ptr %5, align 8
  %81 = call i1 @llvm.is.fpclass.f64(double %80, i32 504)
  %82 = xor i1 %81, true
  br i1 %82, label %86, label %83

83:                                               ; preds = %75
  %84 = load double, ptr %5, align 8
  %85 = call i1 @llvm.is.fpclass.f64(double %84, i32 3)
  br i1 %85, label %86, label %87

86:                                               ; preds = %83, %75
  store i64 0, ptr %4, align 8
  br label %99

87:                                               ; preds = %83
  %88 = load double, ptr %5, align 8
  %89 = fcmp oge double %88, 0x43E0000000000000
  br i1 %89, label %93, label %90

90:                                               ; preds = %87
  %91 = load double, ptr %5, align 8
  %92 = fcmp olt double %91, 0xC3E0000000000000
  br i1 %92, label %93, label %96

93:                                               ; preds = %90, %87
  %94 = load double, ptr %5, align 8
  %95 = call i64 @zend_dval_to_lval_slow(double noundef %94) #10
  store i64 %95, ptr %4, align 8
  br label %99

96:                                               ; preds = %90
  %97 = load double, ptr %5, align 8
  %98 = fptosi double %97 to i64
  store i64 %98, ptr %4, align 8
  br label %99

99:                                               ; preds = %96, %93, %86
  %100 = load i64, ptr %4, align 8
  store i64 %100, ptr %7, align 8
  %101 = load double, ptr %6, align 8
  %102 = load i64, ptr %7, align 8
  store double %101, ptr %2, align 8
  store i64 %102, ptr %3, align 8
  %103 = load i64, ptr %3, align 8
  %104 = sitofp i64 %103 to double
  %105 = load double, ptr %2, align 8
  %106 = fcmp oeq double %104, %105
  br i1 %106, label %109, label %107

107:                                              ; preds = %99
  %108 = load double, ptr %6, align 8
  call void @zend_incompatible_double_to_long_error(double noundef %108) #10
  br label %109

109:                                              ; preds = %107, %99
  %110 = load i64, ptr %7, align 8
  store i64 %110, ptr %14, align 8
  br label %134

111:                                              ; preds = %17
  %112 = load ptr, ptr %15, align 8
  %113 = getelementptr inbounds %struct._zval_struct, ptr %112, i32 0, i32 0
  %114 = load i64, ptr %113, align 8
  store i64 %114, ptr %14, align 8
  br label %134

115:                                              ; preds = %17
  store i64 0, ptr %14, align 8
  br label %134

116:                                              ; preds = %17
  store i64 1, ptr %14, align 8
  br label %134

117:                                              ; preds = %17
  %118 = load ptr, ptr %15, align 8
  %119 = getelementptr inbounds %struct._zval_struct, ptr %118, i32 0, i32 0
  %120 = load ptr, ptr %119, align 8
  %121 = getelementptr inbounds %struct._zend_reference, ptr %120, i32 0, i32 1
  store ptr %121, ptr %15, align 8
  br label %17

122:                                              ; preds = %17
  %123 = load ptr, ptr %15, align 8
  call void @zend_use_resource_as_offset(ptr noundef %123)
  %124 = load ptr, ptr %15, align 8
  %125 = getelementptr inbounds %struct._zval_struct, ptr %124, i32 0, i32 0
  %126 = load ptr, ptr %125, align 8
  %127 = getelementptr inbounds %struct._zend_resource, ptr %126, i32 0, i32 1
  %128 = load i64, ptr %127, align 8
  store i64 %128, ptr %14, align 8
  br label %134

129:                                              ; preds = %74, %17
  %130 = load ptr, ptr @spl_ce_SplFixedArray, align 8
  %131 = getelementptr inbounds %struct._zend_class_entry, ptr %130, i32 0, i32 1
  %132 = load ptr, ptr %131, align 8
  %133 = load ptr, ptr %15, align 8
  call void @zend_illegal_container_offset(ptr noundef %132, ptr noundef %133, i32 noundef 0)
  store i64 0, ptr %14, align 8
  br label %134

134:                                              ; preds = %129, %122, %116, %115, %111, %109, %72
  %135 = load i64, ptr %14, align 8
  ret i64 %135
}