; Function Attrs: nounwind uwtable
define internal fastcc i64 @spl_offset_convert_to_long(ptr noundef %0) unnamed_addr #0 {
  %2 = alloca i64, align 8
  br label %3

3:                                                ; preds = %40, %1
  %.0 = phi ptr [ %0, %1 ], [ %42, %40 ]
  %4 = getelementptr inbounds i8, ptr %.0, i64 8
  %5 = load i8, ptr %4, align 8
  switch i8 %5, label %.critedge [
    i8 6, label %6
    i8 5, label %24
    i8 4, label %38
    i8 2, label %.loopexit.loopexit
    i8 3, label %.loopexit
    i8 10, label %40
    i8 9, label %43
  ]

6:                                                ; preds = %3
  %7 = load ptr, ptr %.0, align 8
  %8 = getelementptr inbounds i8, ptr %7, i64 24
  %9 = getelementptr inbounds i8, ptr %7, i64 16
  %10 = load i64, ptr %9, align 8
  %11 = load i8, ptr %8, align 1
  %12 = icmp sgt i8 %11, 57
  br i1 %12, label %.critedge, label %13

13:                                               ; preds = %6
  %14 = icmp slt i8 %11, 48
  br i1 %14, label %15, label %20

15:                                               ; preds = %13
  %.not = icmp eq i8 %11, 45
  br i1 %.not, label %16, label %.critedge

16:                                               ; preds = %15
  %17 = getelementptr inbounds i8, ptr %7, i64 25
  %18 = load i8, ptr %17, align 1
  %19 = add i8 %18, -58
  %or.cond42 = icmp ult i8 %19, -10
  br i1 %or.cond42, label %.critedge, label %20

20:                                               ; preds = %16, %13
  %21 = call zeroext i1 @_zend_handle_numeric_str_ex(ptr noundef nonnull %8, i64 noundef %10, ptr noundef nonnull %2) #12
  br i1 %21, label %22, label %.critedge

22:                                               ; preds = %20
  %23 = load i64, ptr %2, align 8
  br label %.loopexit

24:                                               ; preds = %3
  %25 = load double, ptr %.0, align 8
  %26 = tail call double @llvm.fabs.f64(double %25)
  %or.cond43 = fcmp ueq double %26, 0x7FF0000000000000
  br i1 %or.cond43, label %34, label %27

27:                                               ; preds = %24
  %28 = fcmp oge double %25, 0x43E0000000000000
  %29 = fcmp olt double %25, 0xC3E0000000000000
  %or.cond = or i1 %28, %29
  br i1 %or.cond, label %30, label %32

30:                                               ; preds = %27
  %31 = tail call i64 @zend_dval_to_lval_slow(double noundef %25) #12
  br label %34

32:                                               ; preds = %27
  %33 = fptosi double %25 to i64
  br label %34

34:                                               ; preds = %24, %32, %30
  %.037 = phi i64 [ %31, %30 ], [ %33, %32 ], [ 0, %24 ]
  %35 = sitofp i64 %.037 to double
  %36 = fcmp oeq double %25, %35
  br i1 %36, label %.loopexit, label %37

37:                                               ; preds = %34
  tail call void @zend_incompatible_double_to_long_error(double noundef %25) #12
  br label %.loopexit

38:                                               ; preds = %3
  %39 = load i64, ptr %.0, align 8
  br label %.loopexit

40:                                               ; preds = %3
  %41 = load ptr, ptr %.0, align 8
  %42 = getelementptr inbounds i8, ptr %41, i64 8
  br label %3

43:                                               ; preds = %3
  tail call void @zend_use_resource_as_offset(ptr noundef nonnull %.0) #12
  %44 = load ptr, ptr %.0, align 8
  %45 = getelementptr inbounds i8, ptr %44, i64 8
  %46 = load i64, ptr %45, align 8
  br label %.loopexit

.critedge:                                        ; preds = %3, %6, %15, %16, %20
  %47 = load ptr, ptr @spl_ce_SplFixedArray, align 8
  %48 = getelementptr inbounds i8, ptr %47, i64 8
  %49 = load ptr, ptr %48, align 8
  call void @zend_illegal_container_offset(ptr noundef %49, ptr noundef nonnull %.0, i32 noundef 0) #12
  br label %.loopexit

.loopexit.loopexit:                               ; preds = %3
  br label %.loopexit

.loopexit:                                        ; preds = %3, %.loopexit.loopexit, %34, %37, %.critedge, %43, %38, %22
  %.036 = phi i64 [ 0, %.critedge ], [ %46, %43 ], [ %39, %38 ], [ %23, %22 ], [ %.037, %37 ], [ %.037, %34 ], [ 0, %.loopexit.loopexit ], [ 1, %3 ]
  ret i64 %.036
}